target datalayout = "e-m:e-p270:32:32-p271:32:32-p272:64:64-i64:64-i128:128-f80:128-n8:16:32:64-S128"
target triple = "x86_64-unknown-linux-gnu"

%"class.v8::IndirectHandleBase" = type { ptr }
%"class.v8impl::(anonymous namespace)::AsyncContext" = type <{ ptr, double, double, %"class.v8::Global.293", i8, [7 x i8] }>
%"class.v8::Global.293" = type { %"class.v8::PersistentBase.294" }
%"class.v8::PersistentBase.294" = type { %"class.v8::IndirectHandleBase" }
%"class.v8::WeakCallbackInfo" = type { ptr, ptr, ptr, [2 x ptr] }

; Function Attrs: mustprogress nounwind uwtable
define internal void @_ZN6v8impl12_GLOBAL__N_112AsyncContext12WeakCallbackERKN2v816WeakCallbackInfoIS1_EE(ptr noundef nonnull align 8 dereferenceable(40) %data) #4 align 2 {
entry:
  %this.addr.i1 = alloca ptr, align 8
  %this.addr.i5.i = alloca ptr, align 8
  %this.addr.i3.i = alloca ptr, align 8
  %this.addr.i.i = alloca ptr, align 8
  %this.addr.i = alloca ptr, align 8
  %data.addr = alloca ptr, align 8
  %async_context = alloca ptr, align 8
  store ptr %data, ptr %data.addr, align 8
  %0 = load ptr, ptr %data.addr, align 8
  store ptr %0, ptr %this.addr.i1, align 8
  %this1.i2 = load ptr, ptr %this.addr.i1, align 8
  %parameter_.i = getelementptr inbounds %"class.v8::WeakCallbackInfo", ptr %this1.i2, i32 0, i32 1
  %1 = load ptr, ptr %parameter_.i, align 8
  store ptr %1, ptr %async_context, align 8
  %2 = load ptr, ptr %async_context, align 8
  %resource_ = getelementptr inbounds %"class.v8impl::(anonymous namespace)::AsyncContext", ptr %2, i32 0, i32 3
  store ptr %resource_, ptr %this.addr.i, align 8
  %this1.i = load ptr, ptr %this.addr.i, align 8
  store ptr %this1.i, ptr %this.addr.i.i, align 8
  %this1.i.i = load ptr, ptr %this.addr.i.i, align 8
  %3 = load ptr, ptr %this1.i.i, align 8
  %cmp.i.i = icmp eq ptr %3, null
  br i1 %cmp.i.i, label %if.then.i, label %if.end.i

if.then.i:                                        ; preds = %entry
  br label %_ZN2v814PersistentBaseINS_6ObjectEE5ResetEv.exit

if.end.i:                                         ; preds = %entry
  store ptr %this1.i, ptr %this.addr.i3.i, align 8
  %this1.i4.i = load ptr, ptr %this.addr.i3.i, align 8
  %4 = load ptr, ptr %this1.i4.i, align 8
  call void @_ZN2v812api_internal13DisposeGlobalEPm(ptr noundef %4) #3
  store ptr %this1.i, ptr %this.addr.i5.i, align 8
  %this1.i6.i = load ptr, ptr %this.addr.i5.i, align 8
  store ptr null, ptr %this1.i6.i, align 8
  br label %_ZN2v814PersistentBaseINS_6ObjectEE5ResetEv.exit

_ZN2v814PersistentBaseINS_6ObjectEE5ResetEv.exit: ; preds = %if.end.i, %if.then.i
  %5 = load ptr, ptr %async_context, align 8
  %lost_reference_ = getelementptr inbounds %"class.v8impl::(anonymous namespace)::AsyncContext", ptr %5, i32 0, i32 4
  store i8 1, ptr %lost_reference_, align 8
  ret void
}