; Function Attrs: mustprogress nounwind uwtable
define internal void @_ZN6v8impl12_GLOBAL__N_112AsyncContext12WeakCallbackERKN2v816WeakCallbackInfoIS1_EE(ptr nocapture noundef nonnull readonly align 8 dereferenceable(40) %data) #3 align 2 {
entry:
  %parameter_.i = getelementptr inbounds i8, ptr %data, i64 8
  %0 = load ptr, ptr %parameter_.i, align 8
  %resource_ = getelementptr inbounds i8, ptr %0, i64 24
  %1 = load ptr, ptr %resource_, align 8
  %cmp.i.i = icmp eq ptr %1, null
  br i1 %cmp.i.i, label %_ZN2v814PersistentBaseINS_6ObjectEE5ResetEv.exit, label %if.end.i

if.end.i:                                         ; preds = %entry
  tail call void @_ZN2v812api_internal13DisposeGlobalEPm(ptr noundef nonnull %1) #21
  store ptr null, ptr %resource_, align 8
  br label %_ZN2v814PersistentBaseINS_6ObjectEE5ResetEv.exit

_ZN2v814PersistentBaseINS_6ObjectEE5ResetEv.exit: ; preds = %entry, %if.end.i
  %lost_reference_ = getelementptr inbounds i8, ptr %0, i64 32
  store i8 1, ptr %lost_reference_, align 8
  ret void
}